(lp0
(dp1
S'length'
p2
I10
sS'name'
p3
S'a'
p4
sS'sequence'
p5
(lp6
S'C'
p7
ag7
aS'G'
p8
ag8
aS'T'
p9
aS'A'
p10
ag7
ag7
ag7
ag10
asa(dp11
g2
I16
sg3
S'b'
p12
sg5
(lp13
g8
ag10
ag9
ag7
ag9
ag9
ag8
ag9
ag9
ag7
ag8
ag9
ag10
ag7
ag10
ag9
asa(dp14
g2
I10
sg3
S'c'
p15
sg5
(lp16
g8
ag7
ag9
ag8
ag10
ag8
ag9
ag7
ag9
ag9
asa.